(dp0
S'838841'
p1
F53791.4996081
sS'838840'
p2
F53791.492991
sS'838843'
p3
F53791.5128822
sS'838842'
p4
F53791.5062339
sS'838845'
p5
F53791.5261448
sS'838844'
p6
F53791.5195254
sS'838847'
p7
F53791.539986
sS'838846'
p8
F53791.5333174
sS'838849'
p9
F53791.5532486
sS'838848'
p10
F53791.5466072
sS'853541'
p11
F53916.3417762
sS'853236'
p12
F53911.292767
sS'852890'
p13
F53906.3379664
sS'853233'
p14
F53911.2806236
sS'851052'
p15
F53892.3123215
sS'853730'
p16
F53919.3128153
sS'853731'
p17
F53919.3168874
sS'853732'
p18
F53919.3220058
sS'852891'
p19
F53906.3420367
sS'853734'
p20
F53919.3352626
sS'851058'
p21
F53892.3505202
sS'853736'
p22
F53919.3484841
sS'853737'
p23
F53919.3550844
sS'853420'
p24
F53915.2995551
sS'839312'
p25
F53799.4643427
sS'853422'
p26
F53915.3129277
sS'853423'
p27
F53915.3195511
sS'853424'
p28
F53915.3261457
sS'853425'
p29
F53915.3327813
sS'853426'
p30
F53915.3393707
sS'860136'
p31
F53943.2593665
sS'836991'
p32
F53772.5760205
sS'836990'
p33
F53772.569298
sS'836993'
p34
F53772.5894248
sS'836992'
p35
F53772.5827215
sS'836502'
p36
F53769.5867826
sS'839310'
p37
F53799.4561562
sS'836500'
p38
F53769.577223
sS'836501'
p39
F53769.5820201
sS'839311'
p40
F53799.4602578
sS'859608'
p41
F53939.2761933
sS'853235'
p42
F53911.2887146
sS'849684'
p43
F53879.2723862
sS'844109'
p44
F53847.4141177
sS'844108'
p45
F53847.4075058
sS'844107'
p46
F53847.4009095
sS'844106'
p47
F53847.394301
sS'844105'
p48
F53847.3876926
sS'844104'
p49
F53847.3810871
sS'860137'
p50
F53943.2662619
sS'860150'
p51
F53943.3269298
sS'849682'
p52
F53879.2628711
sS'849686'
p53
F53879.2821085
sS'852883'
p54
F53906.2853529
sS'853540'
p55
F53916.3376885
sS'852885'
p56
F53906.2985982
sS'845339'
p57
F53859.295904
sS'852887'
p58
F53906.3149017
sS'852886'
p59
F53906.3082707
sS'852889'
p60
F53906.3292035
sS'852888'
p61
F53906.3215286
sS'851054'
p62
F53892.3255806
sS'845338'
p63
F53859.2892794
sS'839309'
p64
F53799.4520841
sS'839308'
p65
F53799.4480172
sS'859602'
p66
F53939.2466864
sS'853729'
p67
F53919.3087478
sS'853539'
p68
F53916.3329411
sS'853727'
p69
F53919.3005278
sS'853232'
p70
F53911.276526
sS'844479'
p71
F53851.2945395
sS'860135'
p72
F53943.2527465
sS'858536'
p73
F53935.3262331
sS'859606'
p74
F53939.2657623
sS'859607'
p75
F53939.2705171
sS'853733'
p76
F53919.3286223
sS'860149'
p77
F53943.3228686
sS'859604'
p78
F53939.2562067
sS'849371'
p79
F53875.4810572
sS'860147'
p80
F53943.3146845
sS'849688'
p81
F53879.2902515
sS'860140'
p82
F53943.2861074
sS'853735'
p83
F53919.3418676
sS'838868'
p84
F53791.6596962
sS'858541'
p85
F53935.3502457
sS'838861'
p86
F53791.6221769
sS'838860'
p87
F53791.6155876
sS'838867'
p88
F53791.655605
sS'838866'
p89
F53791.6515456
sS'838865'
p90
F53791.6474382
sS'838864'
p91
F53791.6433933
sS'853738'
p92
F53919.3635492
sS'859609'
p93
F53939.2802799
sS'849370'
p94
F53875.4744042
sS'853728'
p95
F53919.3046751
sS'849683'
p96
F53879.2676336
sS'853234'
p97
F53911.2846731
sS'853542'
p98
F53916.3458639
sS'844488'
p99
F53851.338109
sS'844489'
p100
F53851.3438333
sS'853178'
p101
F53910.3211775
sS'844482'
p102
F53851.3089139
sS'844483'
p103
F53851.3136798
sS'844480'
p104
F53851.2993346
sS'844481'
p105
F53851.3041254
sS'844486'
p106
F53851.3285795
sS'844487'
p107
F53851.3333483
sS'844484'
p108
F53851.3190007
sS'844485'
p109
F53851.323784
sS'844842'
p110
F53855.3646733
sS'844843'
p111
F53855.3713043
sS'844840'
p112
F53855.3513957
sS'844841'
p113
F53855.3580302
sS'844846'
p114
F53855.3896262
sS'844847'
p115
F53855.3937145
sS'844844'
p116
F53855.3779231
sS'844845'
p117
F53855.3855367
sS'844848'
p118
F53855.3978092
sS'844849'
p119
F53855.4018923
sS'844838'
p120
F53855.3381111
sS'858540'
p121
F53935.346177
sS'837004'
p122
F53772.6429941
sS'837005'
p123
F53772.6471177
sS'837006'
p124
F53772.6564273
sS'837007'
p125
F53772.6605
sS'853421'
p126
F53915.3061468
sS'837002'
p127
F53772.6347399
sS'837003'
p128
F53772.6388548
sS'836995'
p129
F53772.6028245
sS'859610'
p130
F53939.2844341
sS'837008'
p131
F53772.6645536
sS'836503'
p132
F53769.5915306
sS'860146'
p133
F53943.3106222
sS'851060'
p134
F53892.3587605
sS'851061'
p135
F53892.3628616
sS'836996'
p136
F53772.609533
sS'844498'
p137
F53851.3808619
sS'849680'
p138
F53879.2532559
sS'852892'
p139
F53906.3461059
sS'844491'
p140
F53851.3520255
sS'844490'
p141
F53851.3479395
sS'844493'
p142
F53851.3602125
sS'844492'
p143
F53851.3561207
sS'844495'
p144
F53851.368594
sS'844494'
p145
F53851.3644976
sS'844497'
p146
F53851.3767683
sS'844496'
p147
F53851.3726893
sS'853176'
p148
F53910.2714268
sS'853177'
p149
F53910.2891955
sS'853175'
p150
F53910.2666418
sS'852893'
p151
F53906.3501902
sS'858530'
p152
F53935.2865184
sS'858537'
p153
F53935.3338646
sS'852884'
p154
F53906.2919631
sS'853179'
p155
F53910.326021
sS'839231'
p156
F53798.5574499
sS'859612'
p157
F53939.2925732
sS'839233'
p158
F53798.5708739
sS'839232'
p159
F53798.5642238
sS'839235'
p160
F53798.5841689
sS'839234'
p161
F53798.5774991
sS'839237'
p162
F53798.5974268
sS'839236'
p163
F53798.5908004
sS'853183'
p164
F53910.3707216
sS'839238'
p165
F53798.6040942
sS'853181'
p166
F53910.3611018
sS'853180'
p167
F53910.3307869
sS'836994'
p168
F53772.5961078
sS'853184'
p169
F53910.402787
sS'849368'
p170
F53875.4611781
sS'849369'
p171
F53875.4678016
sS'850175'
p172
F53883.3448233
sS'850174'
p173
F53883.3382051
sS'850173'
p174
F53883.3316065
sS'850172'
p175
F53883.3249738
sS'850171'
p176
F53883.3183757
sS'850170'
p177
F53883.3117685
sS'859603'
p178
F53939.2514553
sS'852894'
p179
F53906.354357
sS'858535'
p180
F53935.3195819
sS'849366'
p181
F53875.4478646
sS'849367'
p182
F53875.4545541
sS'836498'
p183
F53769.5673572
sS'838839'
p184
F53791.486367
sS'858534'
p185
F53935.3129671
sS'844839'
p186
F53855.3447595
sS'853182'
p187
F53910.3659528
sS'836491'
p188
F53769.5354701
sS'836492'
p189
F53769.5403049
sS'836493'
p190
F53769.5469625
sS'836494'
p191
F53769.5511046
sS'836495'
p192
F53769.5551634
sS'836496'
p193
F53769.5592263
sS'836497'
p194
F53769.5632909
sS'850178'
p195
F53883.3630196
sS'858531'
p196
F53935.2931314
sS'844214'
p197
F53848.4320372
sS'859611'
p198
F53939.2885051
sS'860134'
p199
F53943.2461294
sS'839510'
p200
F53801.5689678
sS'839511'
p201
F53801.575597
sS'839512'
p202
F53801.5822066
sS'839513'
p203
F53801.5888168
sS'844230'
p204
F53848.5119031
sS'850177'
p205
F53883.3589522
sS'850176'
p206
F53883.3514642
sS'844121'
p207
F53847.4990278
sS'860148'
p208
F53943.3188139
sS'850588'
p209
F53888.3842784
sS'850589'
p210
F53888.3883598
sS'850586'
p211
F53888.3757951
sS'850587'
p212
F53888.3801878
sS'850584'
p213
F53888.3653281
sS'850585'
p214
F53888.3700882
sS'850582'
p215
F53888.3558448
sS'850583'
p216
F53888.3605888
sS'850581'
p217
F53888.3510841
sS'849377'
p218
F53875.511416
sS'860138'
p219
F53943.2729085
sS'860139'
p220
F53943.2795007
sS'851059'
p221
F53892.3546618
sS'849376'
p222
F53875.5073607
sS'851057'
p223
F53892.3464053
sS'851056'
p224
F53892.3388374
sS'850180'
p225
F53883.3712125
sS'850181'
p226
F53883.3752765
sS'851053'
p227
F53892.3189479
sS'849375'
p228
F53875.5033071
sS'851051'
p229
F53892.3056888
sS'851050'
p230
F53892.2990694
sS'849687'
p231
F53879.2861765
sS'844124'
p232
F53847.5197877
sS'849685'
p233
F53879.2780288
sS'849374'
p234
F53875.4992327
sS'839507'
p235
F53801.5489296
sS'844120'
p236
F53847.4908118
sS'844123'
p237
F53847.5131891
sS'844122'
p238
F53847.5056345
sS'849373'
p239
F53875.4951733
sS'839509'
p240
F53801.5622766
sS'839508'
p241
F53801.5556213
sS'849689'
p242
F53879.2943149
sS'849372'
p243
F53875.4876766
sS'838852'
p244
F53791.5732087
sS'838853'
p245
F53791.5808564
sS'838850'
p246
F53791.5599039
sS'838851'
p247
F53791.566551
sS'838857'
p248
F53791.5973271
sS'838854'
p249
F53791.5850031
sS'838855'
p250
F53791.5891273
sS'838858'
p251
F53791.602369
sS'838859'
p252
F53791.6089769
sS'845342'
p253
F53859.3157611
sS'844518'
p254
F53851.4788906
sS'850179'
p255
F53883.3670842
sS'845343'
p256
F53859.3223863
sS'844514'
p257
F53851.4625171
sS'844515'
p258
F53851.4666002
sS'844516'
p259
F53851.4706885
sS'844517'
p260
F53851.4747976
sS'850590'
p261
F53888.3924215
sS'859605'
p262
F53939.260979
sS'844213'
p263
F53848.4279703
sS'844212'
p264
F53848.4239091
sS'844211'
p265
F53848.4198231
sS'844210'
p266
F53848.4157331
sS'858533'
p267
F53935.3063454
sS'858532'
p268
F53935.2997572
sS'853543'
p269
F53916.3499326
sS'836499'
p270
F53769.5724188
sS'836989'
p271
F53772.5625658
sS'858539'
p272
F53935.3420771
sS'858538'
p273
F53935.3380073
sS'844110'
p274
F53847.4207406
sS'844111'
p275
F53847.4307221
sS'844112'
p276
F53847.4373276
sS'844113'
p277
F53847.4439331
sS'844114'
p278
F53847.4505467
sS'844115'
p279
F53847.457139
sS'844116'
p280
F53847.4643677
sS'844117'
p281
F53847.4709831
sS'844118'
p282
F53847.4775753
sS'844119'
p283
F53847.4842138
sS'845340'
p284
F53859.3025049
sS'845341'
p285
F53859.3091452
sS'851055'
p286
F53892.332214
sS'845344'
p287
F53859.3289947
sS'849681'
p288
F53879.2581034
s.