(dp0
S'852892'
p1
F53906.3461059
sS'852893'
p2
F53906.3501902
sS'852890'
p3
F53906.3379664
sS'852891'
p4
F53906.3420367
sS'839312'
p5
F53799.4643427
sS'839310'
p6
F53799.4561562
sS'839311'
p7
F53799.4602578
sS'853235'
p8
F53911.2887146
sS'853234'
p9
F53911.2846731
sS'853541'
p10
F53916.3417762
sS'853236'
p11
F53911.292767
sS'853233'
p12
F53911.2806236
sS'853232'
p13
F53911.276526
sS'853730'
p14
F53919.3128153
sS'853731'
p15
F53919.3168874
sS'858540'
p16
F53935.346177
sS'858541'
p17
F53935.3502457
sS'852894'
p18
F53906.354357
sS'853543'
p19
F53916.3499326
sS'859609'
p20
F53939.2802799
sS'853542'
p21
F53916.3458639
sS'860150'
p22
F53943.3269298
sS'853540'
p23
F53916.3376885
sS'839309'
p24
F53799.4520841
sS'839308'
p25
F53799.4480172
sS'853729'
p26
F53919.3087478
sS'853539'
p27
F53916.3329411
sS'853727'
p28
F53919.3005278
sS'860149'
p29
F53943.3228686
sS'860148'
p30
F53943.3188139
sS'860147'
p31
F53943.3146845
sS'860146'
p32
F53943.3106222
sS'838868'
p33
F53791.6596962
sS'838867'
p34
F53791.655605
sS'838866'
p35
F53791.6515456
sS'838865'
p36
F53791.6474382
sS'838864'
p37
F53791.6433933
sS'853728'
p38
F53919.3046751
sS'859608'
p39
F53939.2761933
sS'844489'
p40
F53851.3438333
sS'844846'
p41
F53855.3896262
sS'844847'
p42
F53855.3937145
sS'844845'
p43
F53855.3855367
sS'844848'
p44
F53855.3978092
sS'844849'
p45
F53855.4018923
sS'837004'
p46
F53772.6429941
sS'837005'
p47
F53772.6471177
sS'837006'
p48
F53772.6564273
sS'837007'
p49
F53772.6605
sS'837002'
p50
F53772.6347399
sS'837003'
p51
F53772.6388548
sS'837008'
p52
F53772.6645536
sS'851060'
p53
F53892.3587605
sS'851061'
p54
F53892.3628616
sS'844498'
p55
F53851.3808619
sS'844491'
p56
F53851.3520255
sS'844490'
p57
F53851.3479395
sS'844493'
p58
F53851.3602125
sS'844492'
p59
F53851.3561207
sS'844495'
p60
F53851.368594
sS'844494'
p61
F53851.3644976
sS'844497'
p62
F53851.3767683
sS'844496'
p63
F53851.3726893
sS'859612'
p64
F53939.2925732
sS'850177'
p65
F53883.3589522
sS'858537'
p66
F53935.3338646
sS'850179'
p67
F53883.3670842
sS'850178'
p68
F53883.3630196
sS'836498'
p69
F53769.5673572
sS'836493'
p70
F53769.5469625
sS'836494'
p71
F53769.5511046
sS'836495'
p72
F53769.5551634
sS'836496'
p73
F53769.5592263
sS'836497'
p74
F53769.5632909
sS'844230'
p75
F53848.5119031
sS'850588'
p76
F53888.3842784
sS'850589'
p77
F53888.3883598
sS'850586'
p78
F53888.3757951
sS'850587'
p79
F53888.3801878
sS'851059'
p80
F53892.3546618
sS'851058'
p81
F53892.3505202
sS'851057'
p82
F53892.3464053
sS'850180'
p83
F53883.3712125
sS'850181'
p84
F53883.3752765
sS'849687'
p85
F53879.2861765
sS'849686'
p86
F53879.2821085
sS'849685'
p87
F53879.2780288
sS'849689'
p88
F53879.2943149
sS'849688'
p89
F53879.2902515
sS'838853'
p90
F53791.5808564
sS'838857'
p91
F53791.5973271
sS'838854'
p92
F53791.5850031
sS'838855'
p93
F53791.5891273
sS'859611'
p94
F53939.2885051
sS'844518'
p95
F53851.4788906
sS'859610'
p96
F53939.2844341
sS'844514'
p97
F53851.4625171
sS'844515'
p98
F53851.4666002
sS'844516'
p99
F53851.4706885
sS'844517'
p100
F53851.4747976
sS'850590'
p101
F53888.3924215
sS'844213'
p102
F53848.4279703
sS'844212'
p103
F53848.4239091
sS'844211'
p104
F53848.4198231
sS'844210'
p105
F53848.4157331
sS'844214'
p106
F53848.4320372
sS'858539'
p107
F53935.3420771
sS'858538'
p108
F53935.3380073
sS'849377'
p109
F53875.511416
sS'849376'
p110
F53875.5073607
sS'849375'
p111
F53875.5033071
sS'849374'
p112
F53875.4992327
sS'849373'
p113
F53875.4951733
s.